target datalayout = "e-m:e-p270:32:32-p271:32:32-p272:64:64-i64:64-i128:128-f80:128-n8:16:32:64-S128"
target triple = "x86_64-pc-linux-gnu"

%"class.std::__cxx11::basic_string" = type { %"struct.std::__cxx11::basic_string<char>::_Alloc_hider", i64, %union.anon }
%"struct.std::__cxx11::basic_string<char>::_Alloc_hider" = type { ptr }
%union.anon = type { i64, [8 x i8] }
%class.cmLinkLineComputer = type <{ ptr, %class.cmStateDirectory, ptr, i8, i8, i8, i8, [4 x i8] }>
%class.cmStateDirectory = type { %"class.cmLinkedTree<cmStateDetail::BuildsystemDirectoryStateType>::iterator", %class.cmStateSnapshot }
%"class.cmLinkedTree<cmStateDetail::BuildsystemDirectoryStateType>::iterator" = type { ptr, i64 }
%class.cmStateSnapshot = type { ptr, %"class.cmLinkedTree<cmStateDetail::SnapshotDataType>::iterator" }
%"class.cmLinkedTree<cmStateDetail::SnapshotDataType>::iterator" = type { ptr, i64 }
%"class.std::basic_string_view" = type { i64, ptr }

; Function Attrs: mustprogress uwtable
define dso_local void @_ZN18cmLinkLineComputer21ConvertToOutputFormatERKNSt7__cxx1112basic_stringIcSt11char_traitsIcESaIcEEE(ptr dead_on_unwind noalias writable sret(%"class.std::__cxx11::basic_string") align 8 %0, ptr noundef nonnull align 8 dereferenceable(60) %1, ptr noundef nonnull align 8 dereferenceable(32) %2) #7 align 2 {
  %4 = alloca ptr, align 8
  %5 = alloca ptr, align 8
  %6 = alloca ptr, align 8
  %7 = alloca i32, align 4
  %8 = alloca %"class.std::basic_string_view", align 8
  store ptr %0, ptr %4, align 8
  store ptr %1, ptr %5, align 8
  store ptr %2, ptr %6, align 8
  %9 = load ptr, ptr %5, align 8
  store i32 0, ptr %7, align 4
  %10 = getelementptr inbounds %class.cmLinkLineComputer, ptr %9, i32 0, i32 3
  %11 = load i8, ptr %10, align 8
  %12 = trunc i8 %11 to i1
  br i1 %12, label %13, label %14

13:                                               ; preds = %3
  store i32 2, ptr %7, align 4
  br label %20

14:                                               ; preds = %3
  %15 = getelementptr inbounds %class.cmLinkLineComputer, ptr %9, i32 0, i32 5
  %16 = load i8, ptr %15, align 2
  %17 = trunc i8 %16 to i1
  br i1 %17, label %18, label %19

18:                                               ; preds = %14
  store i32 1, ptr %7, align 4
  br label %19

19:                                               ; preds = %18, %14
  br label %20

20:                                               ; preds = %19, %13
  %21 = getelementptr inbounds %class.cmLinkLineComputer, ptr %9, i32 0, i32 2
  %22 = load ptr, ptr %21, align 8
  %23 = load ptr, ptr %6, align 8
  %24 = call { i64, ptr } @_ZNKSt7__cxx1112basic_stringIcSt11char_traitsIcESaIcEEcvSt17basic_string_viewIcS2_EEv(ptr noundef nonnull align 8 dereferenceable(32) %23) #3
  %25 = getelementptr inbounds { i64, ptr }, ptr %8, i32 0, i32 0
  %26 = extractvalue { i64, ptr } %24, 0
  store i64 %26, ptr %25, align 8
  %27 = getelementptr inbounds { i64, ptr }, ptr %8, i32 0, i32 1
  %28 = extractvalue { i64, ptr } %24, 1
  store ptr %28, ptr %27, align 8
  %29 = load i32, ptr %7, align 4
  %30 = getelementptr inbounds %class.cmLinkLineComputer, ptr %9, i32 0, i32 4
  %31 = load i8, ptr %30, align 1
  %32 = trunc i8 %31 to i1
  %33 = getelementptr inbounds { i64, ptr }, ptr %8, i32 0, i32 0
  %34 = load i64, ptr %33, align 8
  %35 = getelementptr inbounds { i64, ptr }, ptr %8, i32 0, i32 1
  %36 = load ptr, ptr %35, align 8
  call void @_ZNK17cmOutputConverter21ConvertToOutputFormatB5cxx11ESt17basic_string_viewIcSt11char_traitsIcEENS_12OutputFormatEb(ptr dead_on_unwind writable sret(%"class.std::__cxx11::basic_string") align 8 %0, ptr noundef nonnull align 8 dereferenceable(108) %22, i64 %34, ptr %36, i32 noundef %29, i1 noundef zeroext %32)
  ret void
}