; Function Attrs: mustprogress uwtable
define dso_local void @_ZN18cmLinkLineComputer21ConvertToOutputFormatERKNSt7__cxx1112basic_stringIcSt11char_traitsIcESaIcEEE(ptr dead_on_unwind noalias writable sret(%"class.std::__cxx11::basic_string") align 8 %0, ptr nocapture noundef nonnull readonly align 8 dereferenceable(60) %1, ptr noundef nonnull align 8 dereferenceable(32) %2) local_unnamed_addr #9 align 2 {
  %4 = getelementptr inbounds i8, ptr %1, i64 56
  %5 = load i8, ptr %4, align 8
  %6 = and i8 %5, 1
  %.not = icmp eq i8 %6, 0
  %7 = getelementptr inbounds i8, ptr %1, i64 58
  %8 = load i8, ptr %7, align 2
  %9 = and i8 %8, 1
  %narrow = select i1 %.not, i8 %9, i8 2
  %.0 = zext nneg i8 %narrow to i32
  %10 = getelementptr inbounds i8, ptr %1, i64 48
  %11 = load ptr, ptr %10, align 8
  %12 = tail call { i64, ptr } @_ZNKSt7__cxx1112basic_stringIcSt11char_traitsIcESaIcEEcvSt17basic_string_viewIcS2_EEv(ptr noundef nonnull align 8 dereferenceable(32) %2) #19
  %13 = extractvalue { i64, ptr } %12, 0
  %14 = extractvalue { i64, ptr } %12, 1
  %15 = getelementptr inbounds i8, ptr %1, i64 57
  %16 = load i8, ptr %15, align 1
  %17 = and i8 %16, 1
  %18 = icmp ne i8 %17, 0
  tail call void @_ZNK17cmOutputConverter21ConvertToOutputFormatB5cxx11ESt17basic_string_viewIcSt11char_traitsIcEENS_12OutputFormatEb(ptr dead_on_unwind writable sret(%"class.std::__cxx11::basic_string") align 8 %0, ptr noundef nonnull align 8 dereferenceable(108) %11, i64 %13, ptr %14, i32 noundef %.0, i1 noundef zeroext %18)
  ret void
}